; Function Attrs: alwaysinline norecurse nounwind uwtable
define internal void @_ZNK4ncnn14Concat_x86_fma7forwardERKSt6vectorINS_3MatESaIS2_EERS4_RKNS_6OptionE.omp_outlined(ptr noalias noundef readonly captures(none) %0, ptr noalias readnone captures(none) %1, ptr noundef nonnull readonly align 4 captures(none) dereferenceable(4) %2, ptr noundef nonnull readonly align 8 captures(none) dereferenceable(72) %3, ptr noundef nonnull readonly align 8 captures(none) dereferenceable(24) %4, ptr noundef nonnull readonly align 8 captures(none) dereferenceable(8) %5, ptr noundef nonnull readonly align 4 captures(none) dereferenceable(4) %6) #6 personality ptr @__gxx_personality_v0 {
  %8 = alloca i32, align 4
  %9 = alloca i32, align 4
  %10 = alloca i32, align 4
  %11 = alloca i32, align 4
  %12 = load i32, ptr %2, align 4, !tbaa !46
  %13 = icmp sgt i32 %12, 0
  br i1 %13, label %14, label %65

14:                                               ; preds = %7
  %15 = add nsw i32 %12, -1
  call void @llvm.lifetime.start.p0(i64 4, ptr nonnull %8) #7
  store i32 0, ptr %8, align 4, !tbaa !46
  call void @llvm.lifetime.start.p0(i64 4, ptr nonnull %9) #7
  store i32 %15, ptr %9, align 4, !tbaa !46
  call void @llvm.lifetime.start.p0(i64 4, ptr nonnull %10) #7
  store i32 1, ptr %10, align 4, !tbaa !46
  call void @llvm.lifetime.start.p0(i64 4, ptr nonnull %11) #7
  store i32 0, ptr %11, align 4, !tbaa !46
  %16 = load i32, ptr %0, align 4, !tbaa !46
  call void @__kmpc_for_static_init_4(ptr nonnull @1, i32 %16, i32 34, ptr nonnull %11, ptr nonnull %8, ptr nonnull %9, ptr nonnull %10, i32 1, i32 1)
  %17 = load i32, ptr %9, align 4, !tbaa !46
  %18 = call i32 @llvm.smin.i32(i32 %17, i32 %15)
  store i32 %18, ptr %9, align 4, !tbaa !46
  %19 = load i32, ptr %8, align 4, !tbaa !46
  %.not32 = icmp sgt i32 %19, %18
  br i1 %.not32, label %._crit_edge36, label %.lr.ph35

.lr.ph35:                                         ; preds = %14
  %20 = getelementptr inbounds nuw i8, ptr %3, i64 44
  %21 = getelementptr inbounds nuw i8, ptr %3, i64 16
  %22 = getelementptr inbounds nuw i8, ptr %4, i64 8
  %23 = sext i32 %19 to i64
  %.pre = load ptr, ptr %22, align 8, !tbaa !32
  %.pre39 = load ptr, ptr %4, align 8, !tbaa !4
  br label %24

24:                                               ; preds = %.lr.ph35, %._crit_edge
  %25 = phi i32 [ %18, %.lr.ph35 ], [ %35, %._crit_edge ]
  %26 = phi ptr [ %.pre39, %.lr.ph35 ], [ %36, %._crit_edge ]
  %27 = phi ptr [ %.pre, %.lr.ph35 ], [ %37, %._crit_edge ]
  %indvars.iv = phi i64 [ %23, %.lr.ph35 ], [ %indvars.iv.next, %._crit_edge ]
  %.not37 = icmp eq ptr %27, %26
  br i1 %.not37, label %._crit_edge, label %.lr.ph.preheader

.lr.ph.preheader:                                 ; preds = %24
  %28 = load ptr, ptr %3, align 8, !tbaa !41
  %29 = load i32, ptr %20, align 4, !tbaa !37
  %30 = sext i32 %29 to i64
  %31 = mul nsw i64 %indvars.iv, %30
  %32 = load i64, ptr %21, align 8, !tbaa !30
  %33 = mul i64 %31, %32
  %34 = getelementptr inbounds nuw i8, ptr %28, i64 %33
  br label %.lr.ph

._crit_edge.loopexit:                             ; preds = %.lr.ph
  %.pre40 = load i32, ptr %9, align 4, !tbaa !46
  br label %._crit_edge

._crit_edge:                                      ; preds = %._crit_edge.loopexit, %24
  %35 = phi i32 [ %.pre40, %._crit_edge.loopexit ], [ %25, %24 ]
  %36 = phi ptr [ %59, %._crit_edge.loopexit ], [ %26, %24 ]
  %37 = phi ptr [ %58, %._crit_edge.loopexit ], [ %26, %24 ]
  %indvars.iv.next = add nsw i64 %indvars.iv, 1
  %38 = sext i32 %35 to i64
  %.not.not = icmp slt i64 %indvars.iv, %38
  br i1 %.not.not, label %24, label %._crit_edge36

.lr.ph:                                           ; preds = %.lr.ph.preheader, %.lr.ph
  %39 = phi ptr [ %59, %.lr.ph ], [ %26, %.lr.ph.preheader ]
  %.02831 = phi ptr [ %56, %.lr.ph ], [ %34, %.lr.ph.preheader ]
  %.02930 = phi i64 [ %57, %.lr.ph ], [ 0, %.lr.ph.preheader ]
  %40 = getelementptr inbounds nuw %"class.ncnn::Mat", ptr %39, i64 %.02930
  %41 = load ptr, ptr %40, align 8, !tbaa !41
  %42 = getelementptr inbounds nuw i8, ptr %40, i64 44
  %43 = load i32, ptr %42, align 4, !tbaa !37
  %44 = sext i32 %43 to i64
  %45 = mul nsw i64 %indvars.iv, %44
  %46 = getelementptr inbounds nuw i8, ptr %40, i64 16
  %47 = load i64, ptr %46, align 8, !tbaa !30
  %48 = mul i64 %45, %47
  %49 = getelementptr inbounds nuw i8, ptr %41, i64 %48
  %50 = load i64, ptr %5, align 8, !tbaa !45
  %51 = mul i64 %50, %44
  call void @llvm.memcpy.p0.p0.i64(ptr align 4 %.02831, ptr align 4 %49, i64 %51, i1 false)
  %52 = load i32, ptr %42, align 4, !tbaa !37
  %53 = load i32, ptr %6, align 4, !tbaa !46
  %54 = mul nsw i32 %53, %52
  %55 = sext i32 %54 to i64
  %56 = getelementptr inbounds float, ptr %.02831, i64 %55
  %57 = add nuw i64 %.02930, 1
  %58 = load ptr, ptr %22, align 8, !tbaa !32
  %59 = load ptr, ptr %4, align 8, !tbaa !4
  %60 = ptrtoint ptr %58 to i64
  %61 = ptrtoint ptr %59 to i64
  %62 = sub i64 %60, %61
  %63 = sdiv exact i64 %62, 72
  %64 = icmp ult i64 %57, %63
  br i1 %64, label %.lr.ph, label %._crit_edge.loopexit, !llvm.loop !99

._crit_edge36:                                    ; preds = %._crit_edge, %14
  call void @__kmpc_for_static_fini(ptr nonnull @1, i32 %16)
  call void @llvm.lifetime.end.p0(i64 4, ptr nonnull %11) #7
  call void @llvm.lifetime.end.p0(i64 4, ptr nonnull %10) #7
  call void @llvm.lifetime.end.p0(i64 4, ptr nonnull %9) #7
  call void @llvm.lifetime.end.p0(i64 4, ptr nonnull %8) #7
  br label %65

65:                                               ; preds = %._crit_edge36, %7
  ret void
}